; Function Attrs: mustprogress uwtable
define void @_ZN32pxrInternal_v0_24__pxrReserved__17ArFilesystemAssetC2EP8_IO_FILE(ptr noundef nonnull align 8 dereferenceable(16) %0, ptr noundef %1) unnamed_addr #0 align 2 personality ptr @__gxx_personality_v0 {
  %3 = alloca %"class.pxrInternal_v0_24__pxrReserved__::TfCallContext", align 8
  tail call void @_ZN32pxrInternal_v0_24__pxrReserved__7ArAssetC2Ev(ptr noundef nonnull align 8 dereferenceable(8) %0)
  store ptr getelementptr inbounds inrange(-16, 56) (i8, ptr @_ZTVN32pxrInternal_v0_24__pxrReserved__17ArFilesystemAssetE, i64 16), ptr %0, align 8
  %4 = getelementptr inbounds nuw i8, ptr %0, i64 8
  store ptr %1, ptr %4, align 8
  %.not = icmp eq ptr %1, null
  br i1 %.not, label %5, label %12

5:                                                ; preds = %2
  store ptr @.str.1, ptr %3, align 8
  %6 = getelementptr inbounds nuw i8, ptr %3, i64 8
  store ptr @__func__._ZN32pxrInternal_v0_24__pxrReserved__17ArFilesystemAssetC2EP8_IO_FILE, ptr %6, align 8
  %7 = getelementptr inbounds nuw i8, ptr %3, i64 16
  store i64 42, ptr %7, align 8
  %8 = getelementptr inbounds nuw i8, ptr %3, i64 24
  store ptr @__PRETTY_FUNCTION__._ZN32pxrInternal_v0_24__pxrReserved__17ArFilesystemAssetC2EP8_IO_FILE, ptr %8, align 8
  %9 = getelementptr inbounds nuw i8, ptr %3, i64 32
  store i8 0, ptr %9, align 8
  invoke void (ptr, i32, ptr, ...) @_ZN32pxrInternal_v0_24__pxrReserved__18Tf_PostErrorHelperERKNS_13TfCallContextENS_16TfDiagnosticTypeEPKcz(ptr noundef nonnull align 8 dereferenceable(33) %3, i32 noundef 1, ptr noundef nonnull @.str.2)
          to label %12 unwind label %10

10:                                               ; preds = %5
  %11 = landingpad { ptr, i32 }
          cleanup
  call void @_ZN32pxrInternal_v0_24__pxrReserved__7ArAssetD2Ev(ptr noundef nonnull align 8 dereferenceable(8) %0) #15
  resume { ptr, i32 } %11

12:                                               ; preds = %5, %2
  ret void
}